(dp0
Vengine
p1
Vxelatex
p2
sVpackages
p3
c__builtin__
set
p4
((lp5
tp6
Rp7
sVfiles_with_guttermarks
p8
g4
((lp9
V/Volumes/DATA/Dropbox/Teaching/BachKhoa/Courses/ToanChuyenDe2015/slides-probability/l8/./l8.tex
p10
aS'l8.tex'
p11
atp12
Rp13
sVsynctex
p14
I01
s.