(dp0
Vengine
p1
Vxelatex
p2
sVpackages
p3
c__builtin__
set
p4
((lp5
tp6
Rp7
sVfiles_with_guttermarks
p8
g4
((lp9
V/usr/local/texlive/2015/texmf-dist/tex/latex/fontspec/fontspec.sty
p10
aS'l5.tex'
p11
aV/Volumes/DATA/Dropbox/Teaching/BachKhoa/Courses/ToanChuyenDe2015/slides-probability/l5/./l5.tex
p12
aV/Volumes/DATA/Dropbox/Teaching/BachKhoa/Courses/ToanChuyenDe/slides-probability/l5/./l5.tex
p13
aV/Volumes/DATA/Dropbox/Teaching/BachKhoa/Courses/ToanChuyenDe/slides-probability/l5/../header/header.tex
p14
atp15
Rp16
sVsynctex
p17
I01
s.