(dp0
Vengine
p1
Vxelatex
p2
sVpackages
p3
c__builtin__
set
p4
((lp5
tp6
Rp7
sVfiles_with_guttermarks
p8
g4
((lp9
V/Volumes/DATA/Dropbox/Teaching/BachKhoa/Courses/ToanChuyenDe/slides-probability/l6/./l6.tex
p10
aS'l6.tex'
p11
aV/Volumes/DATA/Dropbox/Teaching/BachKhoa/Courses/ToanChuyenDe2015/slides-probability/l6/./l6.tex
p12
atp13
Rp14
sVsynctex
p15
I01
s.